; Function Attrs: inlinehint mustprogress optsize uwtable
define internal noundef ptr @"_ZZN8nanobind6detail11func_createILb0ELb1EZL32nanobind_init_test_functions_extRNS_7module_EE4$_46NS_5bytesEJPKciEJLm0ELm1EEJNS_5scopeENS_4nameEEEEP7_objectOT1_PFT2_DpT3_ESt16integer_sequenceImJXspT4_EEEDpRKT5_ENUlPvPSB_PhNS_9rv_policyEPNS0_12cleanup_listEE_8__invokeESP_SQ_SR_SS_SU_"(ptr readnone captures(none) %0, ptr noundef readonly captures(none) %1, ptr noundef readonly captures(none) %2, i32 %3, ptr noundef %4) #15 align 2 personality ptr @__gxx_personality_v0 {
  %6 = alloca %"struct.nanobind::detail::tuple.421", align 8
  %7 = alloca %"class.nanobind::bytes", align 8
  call void @llvm.lifetime.start.p0(i64 24, ptr nonnull %6) #27
  %8 = getelementptr inbounds nuw i8, ptr %6, i64 8
  %9 = load ptr, ptr %1, align 8, !tbaa !158
  %10 = load i8, ptr %2, align 1, !tbaa !41
  %11 = call noundef zeroext i1 @_ZN8nanobind6detail11type_casterIciE11from_pythonENS_6handleEhPNS0_12cleanup_listE(ptr noundef nonnull align 8 dereferenceable(16) %8, ptr %9, i8 noundef zeroext %10, ptr noundef %4) #31
  br i1 %11, label %12, label %"_ZZN8nanobind6detail11func_createILb0ELb1EZL32nanobind_init_test_functions_extRNS_7module_EE4$_46NS_5bytesEJPKciEJLm0ELm1EEJNS_5scopeENS_4nameEEEEP7_objectOT1_PFT2_DpT3_ESt16integer_sequenceImJXspT4_EEEDpRKT5_ENKUlPvPSB_PhNS_9rv_policyEPNS0_12cleanup_listEE_clESP_SQ_SR_SS_SU_.exit"

12:                                               ; preds = %5
  %13 = getelementptr inbounds nuw i8, ptr %1, i64 8
  %14 = load ptr, ptr %13, align 8, !tbaa !158
  %15 = getelementptr inbounds nuw i8, ptr %2, i64 1
  %16 = load i8, ptr %15, align 1, !tbaa !41
  %17 = call noundef zeroext i1 @_ZN8nanobind6detail8load_i32EP7_objecthPi(ptr noundef %14, i8 noundef zeroext %16, ptr noundef nonnull align 4 dereferenceable(4) %6) #31
  br i1 %17, label %18, label %"_ZZN8nanobind6detail11func_createILb0ELb1EZL32nanobind_init_test_functions_extRNS_7module_EE4$_46NS_5bytesEJPKciEJLm0ELm1EEJNS_5scopeENS_4nameEEEEP7_objectOT1_PFT2_DpT3_ESt16integer_sequenceImJXspT4_EEEDpRKT5_ENKUlPvPSB_PhNS_9rv_policyEPNS0_12cleanup_listEE_clESP_SQ_SR_SS_SU_.exit"

18:                                               ; preds = %12
  call void @llvm.lifetime.start.p0(i64 8, ptr nonnull %7) #27
  %19 = load ptr, ptr %8, align 8, !tbaa !279
  %20 = load i32, ptr %6, align 8, !tbaa !36
  %21 = sext i32 %20 to i64
  %22 = call noundef ptr @_ZN8nanobind6detail24bytes_from_cstr_and_sizeEPKvm(ptr noundef %19, i64 noundef %21) #28, !noalias !287
  store ptr null, ptr %7, align 8, !tbaa !44
  %23 = call noundef nonnull align 8 dereferenceable(8) ptr @_ZNKR8nanobind6handle7dec_refEv(ptr noundef nonnull align 8 dereferenceable(8) %7) #31
  call void @llvm.lifetime.end.p0(i64 8, ptr nonnull %7) #27
  br label %"_ZZN8nanobind6detail11func_createILb0ELb1EZL32nanobind_init_test_functions_extRNS_7module_EE4$_46NS_5bytesEJPKciEJLm0ELm1EEJNS_5scopeENS_4nameEEEEP7_objectOT1_PFT2_DpT3_ESt16integer_sequenceImJXspT4_EEEDpRKT5_ENKUlPvPSB_PhNS_9rv_policyEPNS0_12cleanup_listEE_clESP_SQ_SR_SS_SU_.exit"

"_ZZN8nanobind6detail11func_createILb0ELb1EZL32nanobind_init_test_functions_extRNS_7module_EE4$_46NS_5bytesEJPKciEJLm0ELm1EEJNS_5scopeENS_4nameEEEEP7_objectOT1_PFT2_DpT3_ESt16integer_sequenceImJXspT4_EEEDpRKT5_ENKUlPvPSB_PhNS_9rv_policyEPNS0_12cleanup_listEE_clESP_SQ_SR_SS_SU_.exit": ; preds = %5, %12, %18
  %.0.i = phi ptr [ %22, %18 ], [ inttoptr (i64 1 to ptr), %12 ], [ inttoptr (i64 1 to ptr), %5 ]
  call void @llvm.lifetime.end.p0(i64 24, ptr nonnull %6) #27
  ret ptr %.0.i
}